; Function Attrs: mustprogress nounwind uwtable
define dso_local { i32, ptr } @_ZN4llvm3sys2fs16create_directoryERKNS_5TwineEbNS1_5permsE(ptr noundef nonnull align 8 dereferenceable(34) %0, i1 noundef zeroext %1, i32 noundef %2) local_unnamed_addr #0 {
  %4 = alloca %"class.llvm::SmallString.10", align 8
  %5 = getelementptr inbounds i8, ptr %4, i64 24
  call void @_ZN4llvm15SmallVectorBaseImEC2EPvm(ptr noundef nonnull align 8 dereferenceable(24) %4, ptr noundef nonnull %5, i64 noundef 128) #30
  %6 = call { ptr, i64 } @_ZNK4llvm5Twine25toNullTerminatedStringRefERNS_15SmallVectorImplIcEE(ptr noundef nonnull align 8 dereferenceable(34) %0, ptr noundef nonnull align 8 dereferenceable(24) %4) #30
  %7 = extractvalue { ptr, i64 } %6, 0
  %8 = call i32 @mkdir(ptr noundef %7, i32 noundef %2) #30
  %9 = icmp eq i32 %8, -1
  br i1 %9, label %10, label %15

10:                                               ; preds = %3
  %11 = tail call ptr @__errno_location() #33
  %12 = load i32, ptr %11, align 4
  %.not = icmp eq i32 %12, 17
  %brmerge.not = and i1 %1, %.not
  br i1 %brmerge.not, label %15, label %13

13:                                               ; preds = %10
  %14 = tail call noundef nonnull align 8 dereferenceable(8) ptr @_ZNSt3_V216generic_categoryEv() #33
  br label %17

15:                                               ; preds = %10, %3
  %16 = tail call noundef nonnull align 8 dereferenceable(8) ptr @_ZNSt3_V215system_categoryEv() #33
  br label %17

17:                                               ; preds = %15, %13
  %.sroa.03.0 = phi i32 [ %12, %13 ], [ 0, %15 ]
  %.sroa.3.0 = phi ptr [ %14, %13 ], [ %16, %15 ]
  %18 = call noundef i64 @_ZNK4llvm15SmallVectorBaseImE4sizeEv(ptr noundef nonnull align 8 dereferenceable(24) %4) #30
  %19 = load ptr, ptr %4, align 8
  %20 = icmp eq ptr %19, %5
  br i1 %20, label %_ZN4llvm11SmallStringILj128EED2Ev.exit, label %21

21:                                               ; preds = %17
  call void @free(ptr noundef %19) #30
  br label %_ZN4llvm11SmallStringILj128EED2Ev.exit

_ZN4llvm11SmallStringILj128EED2Ev.exit:           ; preds = %17, %21
  %.fca.0.insert = insertvalue { i32, ptr } poison, i32 %.sroa.03.0, 0
  %.fca.1.insert = insertvalue { i32, ptr } %.fca.0.insert, ptr %.sroa.3.0, 1
  ret { i32, ptr } %.fca.1.insert
}